target datalayout = "e-m:e-p270:32:32-p271:32:32-p272:64:64-i64:64-i128:128-f80:128-n8:16:32:64-S128"
target triple = "x86_64-pc-linux-gnu"

%class.LibRaw = type { ptr, %struct.libraw_data_t, ptr, %struct.libraw_internal_data_t, [2048 x %struct.decode], ptr, ptr, [10 x %struct.tiff_ifd_t], %class.libraw_memmgr, %struct.libraw_callbacks_t, { i64, i64 }, { i64, i64 }, { i64, i64 }, ptr, ptr, ptr, i64, ptr, ptr, ptr, ptr }
%struct.libraw_data_t = type { ptr, %struct.libraw_image_sizes_t, %struct.libraw_iparams_t, %struct.libraw_lensinfo_t, %struct.libraw_makernotes_t, %struct.libraw_shootinginfo_t, %struct.libraw_output_params_t, %struct.libraw_raw_unpack_params_t, i32, i32, %struct.libraw_colordata_t, %struct.libraw_imgother_t, %struct.libraw_thumbnail_t, %struct.libraw_thumbnail_list_t, %struct.libraw_rawdata_t, ptr }
%struct.libraw_image_sizes_t = type { i16, i16, i16, i16, i16, i16, i16, i16, i32, double, i32, [8 x [4 x i32]], i16, [2 x %struct.libraw_raw_inset_crop_t] }
%struct.libraw_raw_inset_crop_t = type { i16, i16, i16, i16 }
%struct.libraw_iparams_t = type { [4 x i8], [64 x i8], [64 x i8], [64 x i8], [64 x i8], [64 x i8], i32, i32, i32, i32, i32, i32, [6 x [6 x i8]], [6 x [6 x i8]], [5 x i8], i32, ptr }
%struct.libraw_lensinfo_t = type { float, float, float, float, float, [128 x i8], [128 x i8], [128 x i8], [128 x i8], i16, %struct.libraw_nikonlens_t, %struct.libraw_dnglens_t, %struct.libraw_makernotes_lens_t }
%struct.libraw_nikonlens_t = type { float, i8, i8, i8, i8 }
%struct.libraw_dnglens_t = type { float, float, float, float }
%struct.libraw_makernotes_lens_t = type { i64, [128 x i8], i16, i16, i64, i16, i16, [64 x i8], i16, [16 x i8], [16 x i8], float, float, float, float, float, float, float, float, float, float, float, float, float, float, float, i64, [128 x i8], i64, [128 x i8], i64, [128 x i8], i16, float }
%struct.libraw_makernotes_t = type { %struct.libraw_canon_makernotes_t, %struct.libraw_nikon_makernotes_t, %struct.libraw_hasselblad_makernotes_t, %struct.libraw_fuji_info_t, %struct.libraw_olympus_makernotes_t, %struct.libraw_sony_info_t, %struct.libraw_kodak_makernotes_t, %struct.libraw_panasonic_makernotes_t, %struct.libraw_pentax_makernotes_t, %struct.libraw_p1_makernotes_t, %struct.libraw_ricoh_makernotes_t, %struct.libraw_samsung_makernotes_t, %struct.libraw_metadata_common_t }
%struct.libraw_canon_makernotes_t = type { i32, i32, i32, i32, [4 x i32], i32, [4 x i32], i16, i16, i8, i16, i16, i16, i16, i16, i16, i16, i16, i16, i16, i16, i16, i16, i32, float, i16, i16, i16, i32, i16, i32, i32, i16, i32, %struct.libraw_area_t, %struct.libraw_area_t, %struct.libraw_area_t, %struct.libraw_area_t, %struct.libraw_area_t, [2 x i16] }
%struct.libraw_area_t = type { i16, i16, i16, i16 }
%struct.libraw_nikon_makernotes_t = type { double, i16, i16, [7 x i8], i8, i8, [13 x i8], [20 x i8], [4 x i8], [4 x i8], [4 x i8], i8, i8, i8, i8, i8, [2 x i8], i8, i8, i8, i8, i8, [4 x i8], [4 x i8], i8, i16, i32, i32, i32, i32, [4 x double], i8, i8, i8, i32, i32, i32, i8, [4 x i16], i16, %struct.libraw_sensor_highspeed_crop_t, i16, i16, i16, i32, [20 x i8], [20 x i8], i32, i16, double, double, double }
%struct.libraw_sensor_highspeed_crop_t = type { i16, i16, i16, i16 }
%struct.libraw_hasselblad_makernotes_t = type { i32, double, [8 x i8], [64 x i8], [64 x i8], i32, i32, i32, i32, [32 x i8], [64 x i8], i32, [2 x i32], [2 x i32], [4 x [3 x double]] }
%struct.libraw_fuji_info_t = type { float, i16, i16, i16, i16, i16, i16, i16, i16, [33 x i8], [33 x i8], float, i16, i16, [2 x i16], i16, i32, i32, i16, [3 x i16], i16, i16, i16, i16, i16, i32, i16, [13 x i8], [5 x i8], [5 x i8], i32, i16, i32, i16, [9 x i16], [32 x i32], i32, i32, i32, [2 x float], i32 }
%struct.libraw_olympus_makernotes_t = type { [6 x i8], i16, [2 x i32], [5 x i16], i16, [2 x i16], i16, i16, [64 x i32], [5 x double], i16, i8, [3 x i16], [3 x i32], i16, i16, i16, i16, double, [4 x i16], [2 x i32], i8, i32, i16, i16 }
%struct.libraw_sony_info_t = type { i16, i8, i8, i32, i8, i32, i8, i8, i16, [2 x i16], i8, i8, i16, [10 x i8], i8, i8, [4 x i16], i16, i8, i8, i8, i16, i32, i16, [2 x i16], i16, i16, i16, i16, i16, i16, i16, i32, float, i16, i32, i32, i16, [20 x i8], i32, i16, i32, i8, i8, i16, i16, i16, i16, i16, i16, i16, i16, i16, i32, i16, [16 x i8], float }
%struct.libraw_kodak_makernotes_t = type { i16, i16, i16, i16, i16, i16, [3 x [3 x float]], [3 x [3 x float]], [3 x [3 x float]], [3 x [3 x float]], [3 x [3 x float]], [3 x [3 x float]], i16, i16, i16, i16, float, float }
%struct.libraw_panasonic_makernotes_t = type { i16, i16, [8 x float], i32, float, [3 x i32], i16, i16, i32, i32 }
%struct.libraw_pentax_makernotes_t = type { [4 x i8], [2 x i16], [2 x i16], i16, i32, i32, i16, i16, i8, i8, i16 }
%struct.libraw_p1_makernotes_t = type { [64 x i8], [64 x i8], [256 x i8], [64 x i8] }
%struct.libraw_ricoh_makernotes_t = type { i16, [2 x i32], [2 x i32], i16, i32, i32, i32, i32, i16, i16, i16, i16, i16, i16, double, double }
%struct.libraw_samsung_makernotes_t = type { [4 x i32], [4 x i32], [2 x i32], [11 x i32], double, i32, [32 x i8] }
%struct.libraw_metadata_common_t = type { float, float, float, float, float, float, float, float, float, float, float, float, float, float, float, float, i16, [128 x i8], float, [4 x %struct.libraw_afinfo_item_t], i32 }
%struct.libraw_afinfo_item_t = type { i32, i16, i32, i32, ptr }
%struct.libraw_shootinginfo_t = type { i16, i16, i16, i16, i16, i16, i16, [64 x i8], [64 x i8] }
%struct.libraw_output_params_t = type { [4 x i32], [4 x i32], [4 x double], [6 x double], [4 x float], float, float, i32, i32, i32, i32, i32, i32, i32, ptr, ptr, ptr, ptr, i32, i32, i32, i32, i32, i32, [4 x i32], i32, i32, float, float, i32, i32, i32, i32, i32, i32, i32, i32, float, float, i32, i32 }
%struct.libraw_raw_unpack_params_t = type { i32, i32, i32, i32, i32, i32, i32, float, [5 x i8], ptr }
%struct.libraw_colordata_t = type { [65536 x i16], [4104 x i32], i32, i32, i32, [4 x i64], float, float, [8 x [8 x i16]], [4 x float], [4 x float], [3 x [4 x float]], [3 x [4 x float]], [3 x [4 x float]], [4 x [3 x float]], %struct.ph1_t, float, float, [64 x i8], [64 x i8], [64 x i8], [64 x i8], [17 x i8], [64 x i8], ptr, i32, [8 x i32], [2 x %struct.libraw_dng_color_t], %struct.libraw_dng_levels_t, [256 x [4 x i32]], [64 x [5 x float]], i32, [2 x %struct.libraw_P1_color_t], i32, i32 }
%struct.ph1_t = type { i32, i32, i32, i32, i32, i32, i32, i32, float }
%struct.libraw_dng_color_t = type { i32, i16, [4 x [4 x float]], [4 x [3 x float]], [3 x [4 x float]] }
%struct.libraw_dng_levels_t = type { i32, [4104 x i32], i32, [4104 x float], float, [4 x i32], [4 x i16], [4 x float], i32, [4 x float], [4 x float], float, float }
%struct.libraw_P1_color_t = type { [9 x float] }
%struct.libraw_imgother_t = type { float, float, float, float, i64, i32, [32 x i32], %struct.libraw_gps_info_t, [512 x i8], [64 x i8], [4 x float] }
%struct.libraw_gps_info_t = type { [3 x float], [3 x float], [3 x float], float, i8, i8, i8, i8, i8 }
%struct.libraw_thumbnail_t = type { i32, i16, i16, i32, i32, ptr }
%struct.libraw_thumbnail_list_t = type { i32, [8 x %struct.libraw_thumbnail_item_t] }
%struct.libraw_thumbnail_item_t = type { i32, i16, i16, i16, i32, i32, i64 }
%struct.libraw_rawdata_t = type { ptr, ptr, ptr, ptr, ptr, ptr, ptr, ptr, ptr, %struct.libraw_iparams_t, %struct.libraw_image_sizes_t, %struct.libraw_internal_output_params_t, %struct.libraw_colordata_t }
%struct.libraw_internal_output_params_t = type { i32, i32, i32, i16, i16 }
%struct.libraw_internal_data_t = type { %struct.internal_data_t, %struct.libraw_internal_output_params_t, %struct.output_data_t, %struct.identify_data_t, %struct.unpacker_data_t }
%struct.internal_data_t = type { ptr, ptr, i32, ptr, i64, i64, [4 x i32] }
%struct.output_data_t = type { ptr, ptr }
%struct.identify_data_t = type { i32, i64, i64, i32, i32, i32 }
%struct.unpacker_data_t = type { i16, [4 x i16], [3 x i16], i32, i64, i64, i64, i64, i64, i64, i32, i32, i32, i32, i32, i32, i32, i32, i32, i32, i32, i32, i32, i32, i32, i32, i32, i64, i32, i32, i32, i32, i32, i32, i32, i32, i32, %struct.pana8_tags_t, [16 x %struct.crx_data_header_t], i32, i32, i16, i16, i32, i32, i32, i32, i32, i32, i32, [20 x i32], i16 }
%struct.pana8_tags_t = type { [6 x i32], [6 x i16], i16, [4 x i16], [17 x i16], [17 x i16], [17 x i16], i16, i16, [5 x i64], [5 x i16], [5 x i32], [5 x i16], [5 x i16] }
%struct.crx_data_header_t = type { i32, i32, i32, i32, i32, i32, i32, i32, i32, i32, i32, i32, i32, i32, i32, i64, i32, ptr, i32, i32, i32, ptr, i32, ptr }
%struct.decode = type { [2 x ptr], i32 }
%struct.tiff_ifd_t = type { i32, i32, i32, i32, i32, i32, i32, i32, i32, i32, i32, i32, i32, i32, i32, ptr, i32, ptr, i32, i32, i32, i32, i32, i32, i32, float, i64, i64, i32, [2 x %struct.libraw_dng_color_t], %struct.libraw_dng_levels_t, i32 }
%class.libraw_memmgr = type <{ ptr, i32, [4 x i8] }>
%struct.libraw_callbacks_t = type { ptr, ptr, ptr, ptr, ptr, ptr, ptr, ptr, ptr, ptr, ptr, ptr, ptr, ptr, ptr, ptr, ptr }

; Function Attrs: mustprogress uwtable
define void @_ZN6LibRaw9parse_gpsEi(ptr noundef nonnull align 8 dereferenceable(767680) %0, i32 noundef %1) #0 align 2 {
  %3 = alloca ptr, align 8
  %4 = alloca i32, align 4
  %5 = alloca i32, align 4
  %6 = alloca i32, align 4
  %7 = alloca i32, align 4
  %8 = alloca i32, align 4
  %9 = alloca i32, align 4
  %10 = alloca i32, align 4
  %11 = alloca i32, align 4
  store ptr %0, ptr %3, align 8, !tbaa !6
  store i32 %1, ptr %4, align 4, !tbaa !11
  %12 = load ptr, ptr %3, align 8
  call void @llvm.lifetime.start.p0(i64 4, ptr %5) #10
  call void @llvm.lifetime.start.p0(i64 4, ptr %6) #10
  call void @llvm.lifetime.start.p0(i64 4, ptr %7) #10
  call void @llvm.lifetime.start.p0(i64 4, ptr %8) #10
  call void @llvm.lifetime.start.p0(i64 4, ptr %9) #10
  call void @llvm.lifetime.start.p0(i64 4, ptr %10) #10
  %13 = call noundef zeroext i16 @_ZN6LibRaw4get2Ev(ptr noundef nonnull align 8 dereferenceable(767680) %12)
  %14 = zext i16 %13 to i32
  store i32 %14, ptr %5, align 4, !tbaa !11
  %15 = load i32, ptr %5, align 4, !tbaa !11
  %16 = icmp ugt i32 %15, 40
  br i1 %16, label %17, label %18

17:                                               ; preds = %2
  store i32 1, ptr %11, align 4
  br label %131

18:                                               ; preds = %2
  br label %19

19:                                               ; preds = %119, %27, %18
  %20 = load i32, ptr %5, align 4, !tbaa !11
  %21 = add i32 %20, -1
  store i32 %21, ptr %5, align 4, !tbaa !11
  %22 = icmp ne i32 %20, 0
  br i1 %22, label %23, label %130

23:                                               ; preds = %19
  %24 = load i32, ptr %4, align 4, !tbaa !11
  call void @_ZN6LibRaw8tiff_getEjPjS0_S0_S0_(ptr noundef nonnull align 8 dereferenceable(767680) %12, i32 noundef %24, ptr noundef %6, ptr noundef %7, ptr noundef %8, ptr noundef %9)
  %25 = load i32, ptr %8, align 4, !tbaa !11
  %26 = icmp ugt i32 %25, 1024
  br i1 %26, label %27, label %38

27:                                               ; preds = %23
  %28 = getelementptr inbounds nuw %class.LibRaw, ptr %12, i32 0, i32 3
  %29 = getelementptr inbounds nuw %struct.libraw_internal_data_t, ptr %28, i32 0, i32 0
  %30 = getelementptr inbounds nuw %struct.internal_data_t, ptr %29, i32 0, i32 0
  %31 = load ptr, ptr %30, align 8, !tbaa !13
  %32 = load i32, ptr %9, align 4, !tbaa !11
  %33 = zext i32 %32 to i64
  %34 = load ptr, ptr %31, align 8, !tbaa !74
  %35 = getelementptr inbounds ptr, ptr %34, i64 4
  %36 = load ptr, ptr %35, align 8
  %37 = call noundef i32 %36(ptr noundef nonnull align 8 dereferenceable(8) %31, i64 noundef %33, i32 noundef 0)
  br label %19, !llvm.loop !136

38:                                               ; preds = %23
  %39 = load i32, ptr %6, align 4, !tbaa !11
  switch i32 %39, label %119 [
    i32 1, label %40
    i32 3, label %40
    i32 5, label %40
    i32 2, label %57
    i32 4, label %57
    i32 7, label %57
    i32 6, label %77
    i32 18, label %94
    i32 29, label %94
  ]

40:                                               ; preds = %38, %38, %38
  %41 = getelementptr inbounds nuw %class.LibRaw, ptr %12, i32 0, i32 3
  %42 = getelementptr inbounds nuw %struct.libraw_internal_data_t, ptr %41, i32 0, i32 0
  %43 = getelementptr inbounds nuw %struct.internal_data_t, ptr %42, i32 0, i32 0
  %44 = load ptr, ptr %43, align 8, !tbaa !13
  %45 = load ptr, ptr %44, align 8, !tbaa !74
  %46 = getelementptr inbounds ptr, ptr %45, i64 7
  %47 = load ptr, ptr %46, align 8
  %48 = call noundef i32 %47(ptr noundef nonnull align 8 dereferenceable(8) %44)
  %49 = getelementptr inbounds nuw %class.LibRaw, ptr %12, i32 0, i32 1
  %50 = getelementptr inbounds nuw %struct.libraw_data_t, ptr %49, i32 0, i32 11
  %51 = getelementptr inbounds nuw %struct.libraw_imgother_t, ptr %50, i32 0, i32 6
  %52 = load i32, ptr %6, align 4, !tbaa !11
  %53 = udiv i32 %52, 2
  %54 = add i32 29, %53
  %55 = zext i32 %54 to i64
  %56 = getelementptr inbounds nuw [32 x i32], ptr %51, i64 0, i64 %55
  store i32 %48, ptr %56, align 4, !tbaa !11
  br label %119

57:                                               ; preds = %38, %38, %38
  store i32 0, ptr %10, align 4, !tbaa !11
  br label %58

58:                                               ; preds = %73, %57
  %59 = load i32, ptr %10, align 4, !tbaa !11
  %60 = icmp ult i32 %59, 6
  br i1 %60, label %61, label %76

61:                                               ; preds = %58
  %62 = call noundef i32 @_ZN6LibRaw4get4Ev(ptr noundef nonnull align 8 dereferenceable(767680) %12)
  %63 = getelementptr inbounds nuw %class.LibRaw, ptr %12, i32 0, i32 1
  %64 = getelementptr inbounds nuw %struct.libraw_data_t, ptr %63, i32 0, i32 11
  %65 = getelementptr inbounds nuw %struct.libraw_imgother_t, ptr %64, i32 0, i32 6
  %66 = load i32, ptr %6, align 4, !tbaa !11
  %67 = udiv i32 %66, 3
  %68 = mul i32 %67, 6
  %69 = load i32, ptr %10, align 4, !tbaa !11
  %70 = add i32 %68, %69
  %71 = zext i32 %70 to i64
  %72 = getelementptr inbounds nuw [32 x i32], ptr %65, i64 0, i64 %71
  store i32 %62, ptr %72, align 4, !tbaa !11
  br label %73

73:                                               ; preds = %61
  %74 = load i32, ptr %10, align 4, !tbaa !11
  %75 = add i32 %74, 1
  store i32 %75, ptr %10, align 4, !tbaa !11
  br label %58, !llvm.loop !137

76:                                               ; preds = %58
  br label %119

77:                                               ; preds = %38
  store i32 0, ptr %10, align 4, !tbaa !11
  br label %78

78:                                               ; preds = %90, %77
  %79 = load i32, ptr %10, align 4, !tbaa !11
  %80 = icmp ult i32 %79, 2
  br i1 %80, label %81, label %93

81:                                               ; preds = %78
  %82 = call noundef i32 @_ZN6LibRaw4get4Ev(ptr noundef nonnull align 8 dereferenceable(767680) %12)
  %83 = getelementptr inbounds nuw %class.LibRaw, ptr %12, i32 0, i32 1
  %84 = getelementptr inbounds nuw %struct.libraw_data_t, ptr %83, i32 0, i32 11
  %85 = getelementptr inbounds nuw %struct.libraw_imgother_t, ptr %84, i32 0, i32 6
  %86 = load i32, ptr %10, align 4, !tbaa !11
  %87 = add i32 18, %86
  %88 = zext i32 %87 to i64
  %89 = getelementptr inbounds nuw [32 x i32], ptr %85, i64 0, i64 %88
  store i32 %82, ptr %89, align 4, !tbaa !11
  br label %90

90:                                               ; preds = %81
  %91 = load i32, ptr %10, align 4, !tbaa !11
  %92 = add i32 %91, 1
  store i32 %92, ptr %10, align 4, !tbaa !11
  br label %78, !llvm.loop !138

93:                                               ; preds = %78
  br label %119

94:                                               ; preds = %38, %38
  %95 = getelementptr inbounds nuw %class.LibRaw, ptr %12, i32 0, i32 3
  %96 = getelementptr inbounds nuw %struct.libraw_internal_data_t, ptr %95, i32 0, i32 0
  %97 = getelementptr inbounds nuw %struct.internal_data_t, ptr %96, i32 0, i32 0
  %98 = load ptr, ptr %97, align 8, !tbaa !13
  %99 = getelementptr inbounds nuw %class.LibRaw, ptr %12, i32 0, i32 1
  %100 = getelementptr inbounds nuw %struct.libraw_data_t, ptr %99, i32 0, i32 11
  %101 = getelementptr inbounds nuw %struct.libraw_imgother_t, ptr %100, i32 0, i32 6
  %102 = getelementptr inbounds [32 x i32], ptr %101, i64 0, i64 0
  %103 = getelementptr inbounds i32, ptr %102, i64 14
  %104 = load i32, ptr %6, align 4, !tbaa !11
  %105 = udiv i32 %104, 3
  %106 = zext i32 %105 to i64
  %107 = getelementptr inbounds nuw i32, ptr %103, i64 %106
  %108 = load i32, ptr %8, align 4, !tbaa !11
  %109 = icmp ult i32 %108, 12
  br i1 %109, label %110, label %112

110:                                              ; preds = %94
  %111 = load i32, ptr %8, align 4, !tbaa !11
  br label %113

112:                                              ; preds = %94
  br label %113

113:                                              ; preds = %112, %110
  %114 = phi i32 [ %111, %110 ], [ 12, %112 ]
  %115 = load ptr, ptr %98, align 8, !tbaa !74
  %116 = getelementptr inbounds ptr, ptr %115, i64 8
  %117 = load ptr, ptr %116, align 8
  %118 = call noundef ptr %117(ptr noundef nonnull align 8 dereferenceable(8) %98, ptr noundef %107, i32 noundef %114)
  br label %119

119:                                              ; preds = %113, %38, %93, %76, %40
  %120 = getelementptr inbounds nuw %class.LibRaw, ptr %12, i32 0, i32 3
  %121 = getelementptr inbounds nuw %struct.libraw_internal_data_t, ptr %120, i32 0, i32 0
  %122 = getelementptr inbounds nuw %struct.internal_data_t, ptr %121, i32 0, i32 0
  %123 = load ptr, ptr %122, align 8, !tbaa !13
  %124 = load i32, ptr %9, align 4, !tbaa !11
  %125 = zext i32 %124 to i64
  %126 = load ptr, ptr %123, align 8, !tbaa !74
  %127 = getelementptr inbounds ptr, ptr %126, i64 4
  %128 = load ptr, ptr %127, align 8
  %129 = call noundef i32 %128(ptr noundef nonnull align 8 dereferenceable(8) %123, i64 noundef %125, i32 noundef 0)
  br label %19, !llvm.loop !136

130:                                              ; preds = %19
  store i32 0, ptr %11, align 4
  br label %131

131:                                              ; preds = %130, %17
  call void @llvm.lifetime.end.p0(i64 4, ptr %10) #10
  call void @llvm.lifetime.end.p0(i64 4, ptr %9) #10
  call void @llvm.lifetime.end.p0(i64 4, ptr %8) #10
  call void @llvm.lifetime.end.p0(i64 4, ptr %7) #10
  call void @llvm.lifetime.end.p0(i64 4, ptr %6) #10
  call void @llvm.lifetime.end.p0(i64 4, ptr %5) #10
  %132 = load i32, ptr %11, align 4
  switch i32 %132, label %134 [
    i32 0, label %133
    i32 1, label %133
  ]

133:                                              ; preds = %131, %131
  ret void

134:                                              ; preds = %131
  unreachable
}