; Function Attrs: mustprogress uwtable
define void @_ZN6LibRaw9parse_gpsEi(ptr noundef nonnull align 8 dereferenceable(767680) %0, i32 noundef %1) local_unnamed_addr #0 align 2 {
  %3 = alloca i32, align 4
  %4 = alloca i32, align 4
  %5 = alloca i32, align 4
  %6 = alloca i32, align 4
  call void @llvm.lifetime.start.p0(i64 4, ptr nonnull %3) #10
  call void @llvm.lifetime.start.p0(i64 4, ptr nonnull %4) #10
  call void @llvm.lifetime.start.p0(i64 4, ptr nonnull %5) #10
  call void @llvm.lifetime.start.p0(i64 4, ptr nonnull %6) #10
  %7 = tail call noundef zeroext i16 @_ZN6LibRaw4get2Ev(ptr noundef nonnull align 8 dereferenceable(767680) %0)
  %8 = add i16 %7, -41
  %or.cond = icmp ult i16 %8, -40
  br i1 %or.cond, label %.loopexit13, label %.lr.ph

.lr.ph:                                           ; preds = %2
  %9 = zext nneg i16 %7 to i32
  %10 = getelementptr inbounds nuw i8, ptr %0, i64 381416
  %11 = getelementptr inbounds nuw i8, ptr %0, i64 192636
  %12 = getelementptr inbounds nuw i8, ptr %0, i64 192580
  %13 = getelementptr inbounds nuw i8, ptr %0, i64 192652
  %14 = getelementptr inbounds nuw i8, ptr %0, i64 192656
  br label %15

15:                                               ; preds = %.lr.ph, %.backedge
  %.in = phi i32 [ %9, %.lr.ph ], [ %16, %.backedge ]
  %16 = add nsw i32 %.in, -1
  call void @_ZN6LibRaw8tiff_getEjPjS0_S0_S0_(ptr noundef nonnull align 8 dereferenceable(767680) %0, i32 noundef %1, ptr noundef nonnull %3, ptr noundef nonnull %4, ptr noundef nonnull %5, ptr noundef nonnull %6)
  %17 = load i32, ptr %5, align 4, !tbaa !73
  %18 = icmp ugt i32 %17, 1024
  br i1 %18, label %.backedge, label %26

.backedge:                                        ; preds = %39, %.preheader, %15, %26, %28, %50
  %19 = load ptr, ptr %10, align 8, !tbaa !6
  %20 = load i32, ptr %6, align 4, !tbaa !73
  %21 = zext i32 %20 to i64
  %22 = load ptr, ptr %19, align 8, !tbaa !71
  %23 = getelementptr inbounds nuw i8, ptr %22, i64 32
  %24 = load ptr, ptr %23, align 8
  %25 = call noundef i32 %24(ptr noundef nonnull align 8 dereferenceable(8) %19, i64 noundef %21, i32 noundef 0)
  %.not = icmp eq i32 %16, 0
  br i1 %.not, label %.loopexit13, label %15, !llvm.loop !131

26:                                               ; preds = %15
  %27 = load i32, ptr %3, align 4, !tbaa !73
  switch i32 %27, label %.backedge [
    i32 1, label %28
    i32 3, label %28
    i32 5, label %28
    i32 2, label %.preheader27
    i32 4, label %.preheader27
    i32 7, label %.preheader27
    i32 6, label %.preheader
    i32 18, label %50
    i32 29, label %50
  ]

.preheader27:                                     ; preds = %26, %26, %26
  br label %39

28:                                               ; preds = %26, %26, %26
  %29 = load ptr, ptr %10, align 8, !tbaa !6
  %30 = load ptr, ptr %29, align 8, !tbaa !71
  %31 = getelementptr inbounds nuw i8, ptr %30, i64 56
  %32 = load ptr, ptr %31, align 8
  %33 = call noundef i32 %32(ptr noundef nonnull align 8 dereferenceable(8) %29)
  %34 = load i32, ptr %3, align 4, !tbaa !73
  %35 = lshr i32 %34, 1
  %36 = add nuw i32 %35, 29
  %37 = zext i32 %36 to i64
  %38 = getelementptr inbounds nuw [32 x i32], ptr %12, i64 0, i64 %37
  store i32 %33, ptr %38, align 4, !tbaa !73
  br label %.backedge

39:                                               ; preds = %.preheader27, %39
  %.015 = phi i32 [ %47, %39 ], [ 0, %.preheader27 ]
  %40 = call noundef i32 @_ZN6LibRaw4get4Ev(ptr noundef nonnull align 8 dereferenceable(767680) %0)
  %41 = load i32, ptr %3, align 4, !tbaa !73
  %42 = udiv i32 %41, 3
  %43 = mul i32 %42, 6
  %44 = add i32 %43, %.015
  %45 = zext i32 %44 to i64
  %46 = getelementptr inbounds nuw [32 x i32], ptr %12, i64 0, i64 %45
  store i32 %40, ptr %46, align 4, !tbaa !73
  %47 = add nuw nsw i32 %.015, 1
  %exitcond.not = icmp eq i32 %47, 6
  br i1 %exitcond.not, label %.backedge, label %39, !llvm.loop !132

.preheader:                                       ; preds = %26
  %48 = call noundef i32 @_ZN6LibRaw4get4Ev(ptr noundef nonnull align 8 dereferenceable(767680) %0)
  store i32 %48, ptr %13, align 4, !tbaa !73
  %49 = call noundef i32 @_ZN6LibRaw4get4Ev(ptr noundef nonnull align 8 dereferenceable(767680) %0)
  store i32 %49, ptr %14, align 8, !tbaa !73
  br label %.backedge

50:                                               ; preds = %26, %26
  %51 = load ptr, ptr %10, align 8, !tbaa !6
  %.lhs.trunc = trunc i32 %27 to i8
  %52 = udiv i8 %.lhs.trunc, 3
  %53 = zext nneg i8 %52 to i64
  %54 = getelementptr inbounds nuw i32, ptr %11, i64 %53
  %55 = call i32 @llvm.umin.i32(i32 %17, i32 12)
  %56 = load ptr, ptr %51, align 8, !tbaa !71
  %57 = getelementptr inbounds nuw i8, ptr %56, i64 64
  %58 = load ptr, ptr %57, align 8
  %59 = call noundef ptr %58(ptr noundef nonnull align 8 dereferenceable(8) %51, ptr noundef nonnull %54, i32 noundef %55)
  br label %.backedge

.loopexit13:                                      ; preds = %.backedge, %2
  call void @llvm.lifetime.end.p0(i64 4, ptr nonnull %6) #10
  call void @llvm.lifetime.end.p0(i64 4, ptr nonnull %5) #10
  call void @llvm.lifetime.end.p0(i64 4, ptr nonnull %4) #10
  call void @llvm.lifetime.end.p0(i64 4, ptr nonnull %3) #10
  ret void
}